Certificate:
    Data:
        Version: 1 (0x0)
        Serial Number:
            03:c7:fe:e2:a7:5d:92:28:ef:5b:4f:41:1a:52:c9:12:32:75:29:a4
        Signature Algorithm: sha256WithRSAEncryption
        Issuer: CN = CARoot
        Validity
            Not Before: May 14 09:17:36 2021 GMT
            Not After : May 12 09:17:36 2031 GMT
        Subject: C = US, ST = CA, O = Apache, OU = Apache Pulsar, CN = localhost
        Subject Public Key Info:
            Public Key Algorithm: rsaEncryption
                RSA Public-Key: (2048 bit)
                Modulus:
                    00:af:bf:b7:2d:98:ad:9d:f6:da:a3:13:d4:62:0f:
                    98:be:1c:a2:89:22:ba:6f:d5:fd:1f:67:e3:91:03:
                    98:80:81:0e:ed:d8:f6:70:7f:2c:36:68:3d:53:ea:
                    58:3a:a6:d5:89:66:4b:bd:1e:57:71:13:6d:4b:11:
                    e5:40:a5:76:84:24:92:40:58:80:96:c9:1f:2c:c4:
                    55:eb:a3:79:73:70:5c:37:9a:89:ed:2f:ba:6b:e3:
                    82:7c:69:4a:02:54:8b:81:5e:3c:bf:4c:8a:cb:ea:
                    2c:5e:83:e7:b7:10:08:5f:82:58:a3:89:d1:da:92:
                    ba:2a:28:ee:30:28:3f:5b:ae:10:71:96:c7:e1:12:
                    c5:b0:1a:ad:44:6f:44:3a:11:4a:9a:3c:0f:8d:06:
                    80:7b:34:ef:3f:6c:f4:5e:c5:44:54:1e:c8:dd:c7:
                    80:85:80:d9:68:e6:c6:53:03:77:e1:fe:18:61:07:
                    77:05:4c:ed:59:bc:5d:41:38:6a:ef:5d:a1:b2:60:
                    98:d4:48:28:95:02:8a:0e:fd:cf:7b:1b:d2:11:cc:
                    10:0c:50:73:d7:cc:38:6c:83:dd:79:26:aa:90:c8:
                    9b:84:86:bc:59:e9:62:69:f4:98:1b:c4:80:78:7e:
                    a0:1a:81:9d:d2:e1:66:dd:c4:cc:fc:63:04:ac:ec:
                    a7:35
                Exponent: 65537 (0x10001)
    Signature Algorithm: sha256WithRSAEncryption
         aa:27:c7:ef:a4:d0:60:25:8c:bd:a1:27:58:fe:22:73:36:6b:
         98:50:d8:11:8c:0d:be:28:08:4c:ba:5c:c6:40:65:af:33:1b:
         d2:a2:eb:23:02:a9:1a:f0:02:55:82:57:a2:c0:3b:1d:00:21:
         f6:31:0d:8c:61:f3:72:c4:ba:87:46:db:7c:7f:62:7a:30:1b:
         bf:de:d3:c5:b3:74:21:f4:30:29:d8:ba:74:d8:4a:4c:12:d4:
         b9:ea:62:d1:7b:0f:e4:da:7e:76:02:5c:05:1c:a1:bf:69:7b:
         0a:67:46:a0:1e:ba:d8:3d:d6:d4:52:7c:02:87:08:7b:1d:65:
         54:03:c1:df:40:52:04:8e:58:b1:0a:6f:4c:2d:12:61:cb:34:
         e2:d7:70:65:08:cb:4c:f4:ed:20:ef:e6:b4:76:16:06:f8:01:
         45:b0:10:ee:db:a1:bd:4d:57:17:f9:bd:85:ff:80:15:02:03:
         2b:ec:1d:9f:b6:2c:d7:e2:99:09:cd:09:c3:08:86:6e:ba:f8:
         2d:48:59:cf:69:f9:2c:a0:e4:81:d3:32:48:15:7a:a2:58:b3:
         f7:8f:c8:7f:74:29:e0:7c:c5:ae:bf:c5:80:b4:e2:3e:d2:ec:
         07:ce:08:79:32:0b:86:6f:4f:2f:37:8d:75:d4:fc:40:38:31:
         32:88:09:36
-----BEGIN CERTIFICATE-----
MIIC7zCCAdcCFAPH/uKnXZIo71tPQRpSyRIydSmkMA0GCSqGSIb3DQEBCwUAMBEx
DzANBgNVBAMMBkNBUm9vdDAeFw0yMTA1MTQwOTE3MzZaFw0zMTA1MTIwOTE3MzZa
MFcxCzAJBgNVBAYTAlVTMQswCQYDVQQIEwJDQTEPMA0GA1UEChMGQXBhY2hlMRYw
FAYDVQQLEw1BcGFjaGUgUHVsc2FyMRIwEAYDVQQDEwlsb2NhbGhvc3QwggEiMA0G
CSqGSIb3DQEBAQUAA4IBDwAwggEKAoIBAQCvv7ctmK2d9tqjE9RiD5i+HKKJIrpv
1f0fZ+ORA5iAgQ7t2PZwfyw2aD1T6lg6ptWJZku9HldxE21LEeVApXaEJJJAWICW
yR8sxFXro3lzcFw3montL7pr44J8aUoCVIuBXjy/TIrL6ixeg+e3EAhfglijidHa
kroqKO4wKD9brhBxlsfhEsWwGq1Eb0Q6EUqaPA+NBoB7NO8/bPRexURUHsjdx4CF
gNlo5sZTA3fh/hhhB3cFTO1ZvF1BOGrvXaGyYJjUSCiVAooO/c97G9IRzBAMUHPX
zDhsg915JqqQyJuEhrxZ6WJp9JgbxIB4fqAagZ3S4WbdxMz8YwSs7Kc1AgMBAAEw
DQYJKoZIhvcNAQELBQADggEBAKonx++k0GAljL2hJ1j+InM2a5hQ2BGMDb4oCEy6
XMZAZa8zG9Ki6yMCqRrwAlWCV6LAOx0AIfYxDYxh83LEuodG23x/YnowG7/e08Wz
dCH0MCnYunTYSkwS1LnqYtF7D+TafnYCXAUcob9pewpnRqAeutg91tRSfAKHCHsd
ZVQDwd9AUgSOWLEKb0wtEmHLNOLXcGUIy0z07SDv5rR2Fgb4AUWwEO7bob1NVxf5
vYX/gBUCAyvsHZ+2LNfimQnNCcMIhm66+C1IWc9p+Syg5IHTMkgVeqJYs/ePyH90
KeB8xa6/xYC04j7S7AfOCHkyC4ZvTy83jXXU/EA4MTKICTY=
-----END CERTIFICATE-----
