Certificate:
    Data:
        Version: 3 (0x2)
        Serial Number:
            32:df:3f:f3:a6:02:71:fe:15:ea:70:fb:07:06:1b:65:6e:71:55:b8
        Signature Algorithm: sha256WithRSAEncryption
        Issuer: CN = CARoot
        Validity
            Not Before: May 14 09:17:36 2021 GMT
            Not After : May 12 09:17:36 2031 GMT
        Subject: CN = CARoot
        Subject Public Key Info:
            Public Key Algorithm: rsaEncryption
                RSA Public-Key: (2048 bit)
                Modulus:
                    00:ca:76:51:b8:8e:4f:45:5f:cf:1c:da:d6:4f:7f:
                    f0:6f:69:b1:bf:ff:93:a7:1d:57:6d:8f:4a:bc:76:
                    e3:1c:1d:fd:7f:d3:19:26:ca:6d:6c:a7:d9:02:82:
                    b1:e5:ad:02:e5:31:6c:f3:3b:86:fb:d2:0d:cd:b5:
                    9c:dc:9e:a3:ec:99:e6:6a:71:38:cb:87:a7:5a:77:
                    cf:b3:17:77:a3:e0:8a:6e:77:e8:1f:6c:8c:e4:5a:
                    90:35:17:d4:91:c6:e7:9d:e4:e4:b3:cd:83:e2:0f:
                    82:8b:1c:60:40:0d:15:fa:ed:47:92:ef:30:b3:67:
                    0d:16:a7:a1:9f:93:7d:a7:18:03:de:27:1d:ba:e0:
                    e8:74:4b:1e:e1:30:25:02:e4:aa:86:4e:57:73:a9:
                    4c:ec:6e:89:ef:4c:b6:2f:19:20:aa:8d:2a:bc:77:
                    25:ec:81:da:16:37:32:2a:16:62:52:18:c4:66:3b:
                    25:2a:61:cb:c5:d0:35:d5:12:aa:33:b5:ae:95:9d:
                    01:d4:53:8e:a0:73:86:e5:6b:20:45:5c:58:5a:80:
                    cb:34:66:e5:1d:e8:bd:75:c6:23:09:bd:f9:c6:59:
                    a2:6a:0d:73:19:76:8f:ce:0f:04:dd:90:73:48:2e:
                    cc:7b:28:28:5c:bd:2d:97:97:50:f8:10:0a:c4:4b:
                    5a:49
                Exponent: 65537 (0x10001)
        X509v3 extensions:
            X509v3 Subject Key Identifier: 
                AE:38:E0:BE:6E:FF:01:DA:E7:E1:13:0A:76:3F:3A:CF:E8:F1:BE:6A
            X509v3 Authority Key Identifier: 
                keyid:AE:38:E0:BE:6E:FF:01:DA:E7:E1:13:0A:76:3F:3A:CF:E8:F1:BE:6A

            X509v3 Basic Constraints: critical
                CA:TRUE
    Signature Algorithm: sha256WithRSAEncryption
         65:f0:ae:7a:bf:7a:47:44:2b:75:fb:80:5b:86:21:25:7a:26:
         7f:6f:01:b6:fa:4f:25:93:17:7f:21:fd:63:8f:1b:c6:cb:2e:
         24:08:88:7e:70:99:ce:e9:e7:5c:00:ce:5b:31:18:ea:8c:a8:
         4e:5e:27:5f:20:8c:e9:ed:35:17:67:ae:99:23:47:74:ad:a3:
         c0:a2:d1:cd:3e:c1:6d:1d:a8:8f:c8:c1:04:6d:3f:de:65:23:
         dc:bd:55:e5:6b:79:d0:c2:a0:c3:23:3d:8f:95:7f:d9:44:4d:
         a9:74:9e:ae:90:6c:d4:36:54:17:21:bf:a5:42:42:a6:63:f6:
         9a:5e:b5:34:ce:dd:b9:da:3a:12:f9:88:a0:e2:b2:44:da:32:
         85:cc:c0:26:0a:52:91:e5:88:93:c3:35:83:b4:19:38:35:71:
         2b:c4:ca:5c:76:ee:30:45:25:ba:48:98:e2:95:a6:e9:85:a7:
         d5:ea:0e:4f:46:1b:a3:8e:a2:9e:c7:c2:28:12:34:52:02:2b:
         76:cf:fc:bf:16:aa:13:15:a7:dd:e8:3a:bc:0b:7e:4b:e8:f1:
         77:69:38:bd:e0:b7:8b:19:d4:13:b4:8a:2a:7d:cb:52:27:a3:
         b4:07:90:d4:cf:38:c7:cb:1b:95:a5:38:77:19:73:d9:c6:54:
         a1:58:c8:40
-----BEGIN CERTIFICATE-----
MIIDAzCCAeugAwIBAgIUMt8/86YCcf4V6nD7BwYbZW5xVbgwDQYJKoZIhvcNAQEL
BQAwETEPMA0GA1UEAwwGQ0FSb290MB4XDTIxMDUxNDA5MTczNloXDTMxMDUxMjA5
MTczNlowETEPMA0GA1UEAwwGQ0FSb290MIIBIjANBgkqhkiG9w0BAQEFAAOCAQ8A
MIIBCgKCAQEAynZRuI5PRV/PHNrWT3/wb2mxv/+Tpx1XbY9KvHbjHB39f9MZJspt
bKfZAoKx5a0C5TFs8zuG+9INzbWc3J6j7JnmanE4y4enWnfPsxd3o+CKbnfoH2yM
5FqQNRfUkcbnneTks82D4g+CixxgQA0V+u1Hku8ws2cNFqehn5N9pxgD3icduuDo
dEse4TAlAuSqhk5Xc6lM7G6J70y2Lxkgqo0qvHcl7IHaFjcyKhZiUhjEZjslKmHL
xdA11RKqM7WulZ0B1FOOoHOG5WsgRVxYWoDLNGblHei9dcYjCb35xlmiag1zGXaP
zg8E3ZBzSC7MeygoXL0tl5dQ+BAKxEtaSQIDAQABo1MwUTAdBgNVHQ4EFgQUrjjg
vm7/Adrn4RMKdj86z+jxvmowHwYDVR0jBBgwFoAUrjjgvm7/Adrn4RMKdj86z+jx
vmowDwYDVR0TAQH/BAUwAwEB/zANBgkqhkiG9w0BAQsFAAOCAQEAZfCuer96R0Qr
dfuAW4YhJXomf28BtvpPJZMXfyH9Y48bxssuJAiIfnCZzunnXADOWzEY6oyoTl4n
XyCM6e01F2eumSNHdK2jwKLRzT7BbR2oj8jBBG0/3mUj3L1V5Wt50MKgwyM9j5V/
2URNqXSerpBs1DZUFyG/pUJCpmP2ml61NM7dudo6EvmIoOKyRNoyhczAJgpSkeWI
k8M1g7QZODVxK8TKXHbuMEUlukiY4pWm6YWn1eoOT0Ybo46insfCKBI0UgIrds/8
vxaqExWn3eg6vAt+S+jxd2k4veC3ixnUE7SKKn3LUiejtAeQ1M84x8sblaU4dxlz
2cZUoVjIQA==
-----END CERTIFICATE-----
