Certificate:
    Data:
        Version: 1 (0x0)
        Serial Number:
            03:c7:fe:e2:a7:5d:92:28:ef:5b:4f:41:1a:52:c9:12:32:75:29:a5
        Signature Algorithm: sha256WithRSAEncryption
        Issuer: CN = CARoot
        Validity
            Not Before: May 14 09:17:36 2021 GMT
            Not After : May 12 09:17:36 2031 GMT
        Subject: C = US, ST = CA, O = Apache, OU = Apache Pulsar, CN = superUser
        Subject Public Key Info:
            Public Key Algorithm: rsaEncryption
                RSA Public-Key: (2048 bit)
                Modulus:
                    00:cd:43:7d:98:40:f9:b0:5b:bc:ae:db:c0:0b:ad:
                    26:90:96:e0:62:38:ed:68:b1:70:46:3b:de:44:f9:
                    14:51:86:10:eb:ca:90:e7:88:e8:f9:91:85:e0:dd:
                    b5:b4:14:b9:78:e3:86:d5:54:6d:68:ec:14:92:b4:
                    f8:22:5b:05:3d:ed:31:25:65:08:05:84:ca:e6:0c:
                    21:12:58:32:c7:1a:60:a3:4f:d2:4a:9e:28:19:7c:
                    45:84:00:8c:89:dc:de:8a:e5:4f:88:91:cc:a4:f1:
                    81:45:4c:7d:c2:ff:e2:c1:89:c6:12:73:95:e2:36:
                    bd:db:ae:8b:5a:68:6a:90:51:de:2b:88:5f:aa:67:
                    f4:a8:e3:63:dc:be:19:82:cc:9d:7f:e6:8d:fb:82:
                    be:22:01:3d:56:13:3b:5b:04:b4:e8:c5:18:e6:2e:
                    0d:fa:ba:4a:8d:e8:c6:5a:a1:51:9a:4a:62:d7:af:
                    dd:b4:fc:e2:d5:cd:ae:99:6c:5c:61:56:0b:d7:0c:
                    1a:77:5c:f5:3a:6a:54:b5:9e:33:ac:a9:75:28:9a:
                    76:af:d0:7a:57:00:1b:91:13:31:fd:42:88:21:47:
                    05:10:01:2f:59:bb:c7:3a:d9:e1:58:4c:1b:6c:71:
                    b6:98:ef:dd:03:82:58:a3:32:dc:90:a1:b6:a6:1e:
                    e1:0b
                Exponent: 65537 (0x10001)
    Signature Algorithm: sha256WithRSAEncryption
         00:cf:82:26:02:a0:b5:d9:fc:e7:5b:c9:40:c8:04:13:2a:1a:
         59:e6:1e:bf:cf:42:4c:3f:19:f5:55:59:74:dc:45:59:a8:48:
         57:bc:4d:f7:ed:b6:38:5c:93:d5:17:e1:53:cd:e0:4d:77:8a:
         8d:3a:8a:88:3f:c9:38:24:25:36:b9:76:0f:c6:94:80:eb:bc:
         cc:a7:c0:4a:eb:17:54:ab:56:a8:11:53:1e:66:82:9d:a4:9a:
         15:55:22:d1:25:fb:37:d8:29:c6:8c:3a:85:af:c7:2a:ca:fc:
         9c:55:b8:38:90:cf:5c:7f:e4:c1:a8:a3:45:49:6d:12:a3:d7:
         83:e9:a5:07:f0:4c:d7:54:47:5c:32:5c:b2:0a:b8:a1:0d:69:
         b5:5f:3c:d7:b0:62:0e:f1:d6:0b:c7:85:b2:41:15:56:18:6b:
         5c:4c:40:6d:29:8b:be:fe:cb:a7:44:18:57:87:a6:75:82:ed:
         70:af:8d:b4:f3:5f:48:39:e9:0b:3f:d8:73:7e:8d:3b:1f:84:
         9f:b0:19:1a:21:54:91:f3:a8:c7:a8:18:6b:fa:a9:65:ee:d4:
         dd:74:82:b3:71:45:5b:28:32:54:69:ab:f1:c5:33:ad:23:f2:
         d8:47:b3:98:9a:1c:a6:0e:44:ab:36:ad:46:8a:f3:70:bd:8c:
         b1:21:c3:41
-----BEGIN CERTIFICATE-----
MIIC7zCCAdcCFAPH/uKnXZIo71tPQRpSyRIydSmlMA0GCSqGSIb3DQEBCwUAMBEx
DzANBgNVBAMMBkNBUm9vdDAeFw0yMTA1MTQwOTE3MzZaFw0zMTA1MTIwOTE3MzZa
MFcxCzAJBgNVBAYTAlVTMQswCQYDVQQIEwJDQTEPMA0GA1UEChMGQXBhY2hlMRYw
FAYDVQQLEw1BcGFjaGUgUHVsc2FyMRIwEAYDVQQDEwlzdXBlclVzZXIwggEiMA0G
CSqGSIb3DQEBAQUAA4IBDwAwggEKAoIBAQDNQ32YQPmwW7yu28ALrSaQluBiOO1o
sXBGO95E+RRRhhDrypDniOj5kYXg3bW0FLl444bVVG1o7BSStPgiWwU97TElZQgF
hMrmDCESWDLHGmCjT9JKnigZfEWEAIyJ3N6K5U+Ikcyk8YFFTH3C/+LBicYSc5Xi
Nr3brotaaGqQUd4riF+qZ/So42PcvhmCzJ1/5o37gr4iAT1WEztbBLToxRjmLg36
ukqN6MZaoVGaSmLXr920/OLVza6ZbFxhVgvXDBp3XPU6alS1njOsqXUomnav0HpX
ABuREzH9QoghRwUQAS9Zu8c62eFYTBtscbaY790DglijMtyQobamHuELAgMBAAEw
DQYJKoZIhvcNAQELBQADggEBAADPgiYCoLXZ/OdbyUDIBBMqGlnmHr/PQkw/GfVV
WXTcRVmoSFe8Tffttjhck9UX4VPN4E13io06iog/yTgkJTa5dg/GlIDrvMynwErr
F1SrVqgRUx5mgp2kmhVVItEl+zfYKcaMOoWvxyrK/JxVuDiQz1x/5MGoo0VJbRKj
14PppQfwTNdUR1wyXLIKuKENabVfPNewYg7x1gvHhbJBFVYYa1xMQG0pi77+y6dE
GFeHpnWC7XCvjbTzX0g56Qs/2HN+jTsfhJ+wGRohVJHzqMeoGGv6qWXu1N10grNx
RVsoMlRpq/HFM60j8thHs5iaHKYORKs2rUaK83C9jLEhw0E=
-----END CERTIFICATE-----
